; Function Attrs: mustprogress uwtable
define hidden void @_ZN15simplify_tacticC2ER11ast_managerRK10params_ref(ptr noundef nonnull align 8 dereferenceable(32) initializes((0, 13)) %0, ptr noundef nonnull align 8 dereferenceable(976) %1, ptr noundef nonnull align 8 dereferenceable(8) %2) unnamed_addr #3 align 2 personality ptr @__gxx_personality_v0 {
  %4 = getelementptr inbounds nuw i8, ptr %0, i64 8
  store i32 0, ptr %4, align 8, !tbaa !3
  store ptr getelementptr inbounds nuw inrange(-16, 192) (i8, ptr @_ZTV15simplify_tactic, i64 16), ptr %0, align 8, !tbaa !9
  %5 = getelementptr inbounds nuw i8, ptr %0, i64 12
  store i8 1, ptr %5, align 4, !tbaa !11
  %6 = getelementptr inbounds nuw i8, ptr %0, i64 24
  tail call void @_ZN10params_refC1ERKS_(ptr noundef nonnull align 8 dereferenceable(8) %6, ptr noundef nonnull align 8 dereferenceable(8) %2)
  %7 = invoke noalias noundef ptr @_ZN6memory8allocateEm(i64 noundef 32)
          to label %8 unwind label %13

8:                                                ; preds = %3
  store ptr %1, ptr %7, align 8, !tbaa !18
  %9 = getelementptr inbounds nuw i8, ptr %7, i64 8
  invoke void @_ZN11th_rewriterC1ER11ast_managerRK10params_ref(ptr noundef nonnull align 8 dereferenceable(16) %9, ptr noundef nonnull align 8 dereferenceable(976) %1, ptr noundef nonnull align 8 dereferenceable(8) %2)
          to label %10 unwind label %13

10:                                               ; preds = %8
  %11 = getelementptr inbounds nuw i8, ptr %7, i64 24
  store i32 0, ptr %11, align 8, !tbaa !20
  %12 = getelementptr inbounds nuw i8, ptr %0, i64 16
  store ptr %7, ptr %12, align 8, !tbaa !24
  ret void

13:                                               ; preds = %8, %3
  %14 = landingpad { ptr, i32 }
          cleanup
  tail call void @_ZN10params_refD1Ev(ptr noundef nonnull align 8 dereferenceable(8) %6) #19
  resume { ptr, i32 } %14
}